target datalayout = "e-m:e-p270:32:32-p271:32:32-p272:64:64-i64:64-i128:128-f80:128-n8:16:32:64-S128"
target triple = "x86_64-pc-linux-gnu"

%struct.bio_st = type { ptr, ptr, ptr, ptr, ptr, i32, i32, i32, i32, i32, ptr, ptr, ptr, %struct.CRYPTO_REF_COUNT, i64, i64, %struct.crypto_ex_data_st }
%struct.CRYPTO_REF_COUNT = type { i32 }
%struct.crypto_ex_data_st = type { ptr, ptr }
%struct.nbio_test_st = type { i32, i32 }

@.str.2 = private unnamed_addr constant [32 x i8] c"../openssl/crypto/bio/bf_nbio.c\00", align 1

; Function Attrs: nounwind uwtable
define internal i32 @nbiof_new(ptr noundef %0) #0 {
  %2 = alloca i32, align 4
  %3 = alloca ptr, align 8
  %4 = alloca ptr, align 8
  %5 = alloca i32, align 4
  store ptr %0, ptr %3, align 8, !tbaa !3
  call void @llvm.lifetime.start.p0(i64 8, ptr %4) #3
  %6 = call noalias ptr @CRYPTO_zalloc(i64 noundef 8, ptr noundef @.str.2, i32 noundef 58)
  store ptr %6, ptr %4, align 8, !tbaa !21
  %7 = icmp eq ptr %6, null
  br i1 %7, label %8, label %9

8:                                                ; preds = %1
  store i32 0, ptr %2, align 4
  store i32 1, ptr %5, align 4
  br label %19

9:                                                ; preds = %1
  %10 = load ptr, ptr %4, align 8, !tbaa !21
  %11 = getelementptr inbounds nuw %struct.nbio_test_st, ptr %10, i32 0, i32 0
  store i32 -1, ptr %11, align 4, !tbaa !28
  %12 = load ptr, ptr %4, align 8, !tbaa !21
  %13 = getelementptr inbounds nuw %struct.nbio_test_st, ptr %12, i32 0, i32 1
  store i32 -1, ptr %13, align 4, !tbaa !23
  %14 = load ptr, ptr %4, align 8, !tbaa !21
  %15 = load ptr, ptr %3, align 8, !tbaa !3
  %16 = getelementptr inbounds nuw %struct.bio_st, ptr %15, i32 0, i32 10
  store ptr %14, ptr %16, align 8, !tbaa !20
  %17 = load ptr, ptr %3, align 8, !tbaa !3
  %18 = getelementptr inbounds nuw %struct.bio_st, ptr %17, i32 0, i32 5
  store i32 1, ptr %18, align 8, !tbaa !29
  store i32 1, ptr %2, align 4
  store i32 1, ptr %5, align 4
  br label %19

19:                                               ; preds = %9, %8
  call void @llvm.lifetime.end.p0(i64 8, ptr %4) #3
  %20 = load i32, ptr %2, align 4
  ret i32 %20
}