; Function Attrs: nounwind uwtable
define internal range(i32 0, 2) i32 @nbiof_new(ptr noundef writeonly captures(none) %0) #2 {
  %2 = tail call noalias ptr @CRYPTO_zalloc(i64 noundef 8, ptr noundef nonnull @.str.2, i32 noundef 58) #5
  %3 = icmp eq ptr %2, null
  br i1 %3, label %8, label %4

4:                                                ; preds = %1
  store i32 -1, ptr %2, align 4, !tbaa !21
  %5 = getelementptr inbounds nuw i8, ptr %2, i64 4
  store i32 -1, ptr %5, align 4, !tbaa !18
  %6 = getelementptr inbounds nuw i8, ptr %0, i64 64
  store ptr %2, ptr %6, align 8, !tbaa !17
  %7 = getelementptr inbounds nuw i8, ptr %0, i64 40
  store i32 1, ptr %7, align 8, !tbaa !22
  br label %8

8:                                                ; preds = %1, %4
  %.0 = phi i32 [ 1, %4 ], [ 0, %1 ]
  ret i32 %.0
}